target datalayout = "e-m:e-p270:32:32-p271:32:32-p272:64:64-i64:64-i128:128-f80:128-n8:16:32:64-S128"
target triple = "x86_64-pc-linux-gnu"

%struct.tm = type { i32, i32, i32, i32, i32, i32, i32, i32, i32, i64, ptr }

@_relative_date_fmt.todays_date = internal global i32 0, align 4
@.str.37 = private unnamed_addr constant [13 x i8] c"Ystday %H:%M\00", align 1
@.str.38 = private unnamed_addr constant [9 x i8] c"%H:%M:%S\00", align 1
@.str.39 = private unnamed_addr constant [13 x i8] c"Tomorr %H:%M\00", align 1
@.str.40 = private unnamed_addr constant [10 x i8] c"%-d %b %Y\00", align 1
@.str.41 = private unnamed_addr constant [13 x i8] c"%-d %b %H:%M\00", align 1
@.str.42 = private unnamed_addr constant [9 x i8] c"%a %H:%M\00", align 1

; Function Attrs: nounwind uwtable
define internal ptr @_relative_date_fmt(ptr noundef %0) #0 {
  %2 = alloca ptr, align 8
  %3 = alloca ptr, align 8
  %4 = alloca i32, align 4
  %5 = alloca i64, align 8
  %6 = alloca %struct.tm, align 8
  %7 = alloca i32, align 4
  store ptr %0, ptr %3, align 8
  call void @llvm.lifetime.start.p0(i64 4, ptr %4) #7
  %8 = load ptr, ptr %3, align 8
  %9 = getelementptr inbounds nuw %struct.tm, ptr %8, i32 0, i32 5
  %10 = load i32, ptr %9, align 4
  %11 = add nsw i32 %10, 1900
  %12 = mul nsw i32 1000, %11
  %13 = load ptr, ptr %3, align 8
  %14 = getelementptr inbounds nuw %struct.tm, ptr %13, i32 0, i32 7
  %15 = load i32, ptr %14, align 4
  %16 = add nsw i32 %12, %15
  store i32 %16, ptr %4, align 4
  %17 = load i32, ptr @_relative_date_fmt.todays_date, align 4
  %18 = icmp ne i32 %17, 0
  br i1 %18, label %29, label %19

19:                                               ; preds = %1
  call void @llvm.lifetime.start.p0(i64 8, ptr %5) #7
  %20 = call i64 @time(ptr noundef null) #7
  store i64 %20, ptr %5, align 8
  call void @llvm.lifetime.start.p0(i64 56, ptr %6) #7
  %21 = call ptr @localtime_r(ptr noundef %5, ptr noundef %6) #7
  %22 = getelementptr inbounds nuw %struct.tm, ptr %6, i32 0, i32 5
  %23 = load i32, ptr %22, align 4
  %24 = add nsw i32 %23, 1900
  %25 = mul nsw i32 1000, %24
  %26 = getelementptr inbounds nuw %struct.tm, ptr %6, i32 0, i32 7
  %27 = load i32, ptr %26, align 4
  %28 = add nsw i32 %25, %27
  store i32 %28, ptr @_relative_date_fmt.todays_date, align 4
  call void @llvm.lifetime.end.p0(i64 56, ptr %6) #7
  call void @llvm.lifetime.end.p0(i64 8, ptr %5) #7
  br label %29

29:                                               ; preds = %19, %1
  %30 = load i32, ptr @_relative_date_fmt.todays_date, align 4
  %31 = load i32, ptr %4, align 4
  %32 = sub nsw i32 %31, %30
  store i32 %32, ptr %4, align 4
  %33 = load i32, ptr %4, align 4
  %34 = icmp eq i32 %33, -1
  br i1 %34, label %35, label %36

35:                                               ; preds = %29
  store ptr @.str.37, ptr %2, align 8
  store i32 1, ptr %7, align 4
  br label %59

36:                                               ; preds = %29
  %37 = load i32, ptr %4, align 4
  %38 = icmp eq i32 %37, 0
  br i1 %38, label %39, label %40

39:                                               ; preds = %36
  store ptr @.str.38, ptr %2, align 8
  store i32 1, ptr %7, align 4
  br label %59

40:                                               ; preds = %36
  %41 = load i32, ptr %4, align 4
  %42 = icmp eq i32 %41, 1
  br i1 %42, label %43, label %44

43:                                               ; preds = %40
  store ptr @.str.39, ptr %2, align 8
  store i32 1, ptr %7, align 4
  br label %59

44:                                               ; preds = %40
  %45 = load i32, ptr %4, align 4
  %46 = icmp slt i32 %45, -365
  br i1 %46, label %50, label %47

47:                                               ; preds = %44
  %48 = load i32, ptr %4, align 4
  %49 = icmp sgt i32 %48, 365
  br i1 %49, label %50, label %51

50:                                               ; preds = %47, %44
  store ptr @.str.40, ptr %2, align 8
  store i32 1, ptr %7, align 4
  br label %59

51:                                               ; preds = %47
  %52 = load i32, ptr %4, align 4
  %53 = icmp slt i32 %52, -1
  br i1 %53, label %57, label %54

54:                                               ; preds = %51
  %55 = load i32, ptr %4, align 4
  %56 = icmp sgt i32 %55, 6
  br i1 %56, label %57, label %58

57:                                               ; preds = %54, %51
  store ptr @.str.41, ptr %2, align 8
  store i32 1, ptr %7, align 4
  br label %59

58:                                               ; preds = %54
  store ptr @.str.42, ptr %2, align 8
  store i32 1, ptr %7, align 4
  br label %59

59:                                               ; preds = %58, %57, %50, %43, %39, %35
  call void @llvm.lifetime.end.p0(i64 4, ptr %4) #7
  %60 = load ptr, ptr %2, align 8
  ret ptr %60
}