; Function Attrs: nounwind uwtable
define internal fastcc nonnull ptr @_relative_date_fmt(i32 %.20.val, i32 %.28.val) unnamed_addr #0 {
  %1 = alloca i64, align 8
  %2 = alloca %struct.tm, align 8
  %3 = mul i32 %.20.val, 1000
  %4 = add i32 %3, 1900000
  %5 = add nsw i32 %4, %.28.val
  %6 = load i32, ptr @_relative_date_fmt.todays_date, align 4
  %.not = icmp eq i32 %6, 0
  br i1 %.not, label %7, label %17

7:                                                ; preds = %0
  call void @llvm.lifetime.start.p0(i64 8, ptr nonnull %1) #13
  %8 = tail call i64 @time(ptr noundef null) #13
  store i64 %8, ptr %1, align 8
  call void @llvm.lifetime.start.p0(i64 56, ptr nonnull %2) #13
  %9 = call ptr @localtime_r(ptr noundef nonnull %1, ptr noundef nonnull %2) #13
  %10 = getelementptr inbounds nuw i8, ptr %2, i64 20
  %11 = load i32, ptr %10, align 4
  %12 = mul i32 %11, 1000
  %13 = add i32 %12, 1900000
  %14 = getelementptr inbounds nuw i8, ptr %2, i64 28
  %15 = load i32, ptr %14, align 4
  %16 = add nsw i32 %13, %15
  store i32 %16, ptr @_relative_date_fmt.todays_date, align 4
  call void @llvm.lifetime.end.p0(i64 56, ptr nonnull %2) #13
  call void @llvm.lifetime.end.p0(i64 8, ptr nonnull %1) #13
  br label %17

17:                                               ; preds = %7, %0
  %18 = phi i32 [ %16, %7 ], [ %6, %0 ]
  %19 = sub nsw i32 %5, %18
  %20 = icmp eq i32 %19, -1
  br i1 %20, label %29, label %21

21:                                               ; preds = %17
  %22 = icmp eq i32 %5, %18
  br i1 %22, label %29, label %23

23:                                               ; preds = %21
  %24 = icmp eq i32 %19, 1
  br i1 %24, label %29, label %25

25:                                               ; preds = %23
  %26 = add i32 %19, -366
  %or.cond = icmp ult i32 %26, -731
  br i1 %or.cond, label %29, label %27

27:                                               ; preds = %25
  %28 = add nsw i32 %19, -7
  %or.cond3 = icmp ult i32 %28, -8
  %.str.41..str.42 = select i1 %or.cond3, ptr @.str.41, ptr @.str.42
  br label %29

29:                                               ; preds = %27, %25, %23, %21, %17
  %.0 = phi ptr [ @.str.37, %17 ], [ @.str.38, %21 ], [ @.str.39, %23 ], [ @.str.40, %25 ], [ %.str.41..str.42, %27 ]
  ret ptr %.0
}